(dp0
S'engine'
p1
S'internal'
p2
sS'params1'
p3
S''
p4
sS'run'
p5
I00
sS'method1'
p6
S'pseudo-log-likelihood with blocking'
p7
sS'geometry'
p8
S'1078x1234+16+205'
p9
sS'db'
p10
S'test.db'
p11
sS'priorStdDev'
p12
S'100'
p13
sS'mln'
p14
S'er2-works-great-but-slow-1.mln'
p15
sS'output_filename'
p16
S'wts.pybpll.test-er2-works-great-but-slow-1.mln'
p17
sS'pattern'
p18
S'iuwhof_001*.db'
p19
sS'addUnitClauses'
p20
I0
sS'nePreds'
p21
g4
sS'usePrior'
p22
I0
s.